target datalayout = "e-m:e-p270:32:32-p271:32:32-p272:64:64-i64:64-i128:128-f80:128-n8:16:32:64-S128"
target triple = "x86_64-pc-linux-gnu"

%struct.switch_record_bitmaps_t = type { ptr, ptr }

@g_switch_nodes_maps = external global ptr, align 8

; Function Attrs: nounwind uwtable
define dso_local void @free_switch_nodes_maps(ptr noundef %0) #0 {
  %2 = alloca ptr, align 8
  store ptr %0, ptr %2, align 8
  br label %3

3:                                                ; preds = %33, %1
  %4 = load ptr, ptr %2, align 8
  %5 = getelementptr inbounds nuw %struct.switch_record_bitmaps_t, ptr %4, i32 1
  store ptr %5, ptr %2, align 8
  %6 = icmp ne ptr %4, null
  br i1 %6, label %7, label %34

7:                                                ; preds = %3
  %8 = load ptr, ptr %2, align 8
  %9 = getelementptr inbounds nuw %struct.switch_record_bitmaps_t, ptr %8, i32 0, i32 1
  %10 = load ptr, ptr %9, align 8
  %11 = icmp ne ptr %10, null
  br i1 %11, label %13, label %12

12:                                               ; preds = %7
  br label %34

13:                                               ; preds = %7
  br label %14

14:                                               ; preds = %13
  %15 = load ptr, ptr %2, align 8
  %16 = getelementptr inbounds nuw %struct.switch_record_bitmaps_t, ptr %15, i32 0, i32 1
  %17 = load ptr, ptr %16, align 8
  %18 = icmp ne ptr %17, null
  br i1 %18, label %19, label %22

19:                                               ; preds = %14
  %20 = load ptr, ptr %2, align 8
  %21 = getelementptr inbounds nuw %struct.switch_record_bitmaps_t, ptr %20, i32 0, i32 1
  call void @slurm_bit_free(ptr noundef %21)
  br label %22

22:                                               ; preds = %19, %14
  %23 = load ptr, ptr %2, align 8
  %24 = getelementptr inbounds nuw %struct.switch_record_bitmaps_t, ptr %23, i32 0, i32 1
  store ptr null, ptr %24, align 8
  br label %25

25:                                               ; preds = %22
  %26 = load ptr, ptr %2, align 8
  %27 = getelementptr inbounds nuw %struct.switch_record_bitmaps_t, ptr %26, i32 0, i32 1
  %28 = load ptr, ptr %27, align 8
  %29 = icmp ne ptr %28, null
  br i1 %29, label %30, label %33

30:                                               ; preds = %25
  %31 = load ptr, ptr %2, align 8
  %32 = getelementptr inbounds nuw %struct.switch_record_bitmaps_t, ptr %31, i32 0, i32 0
  call void @slurm_xfree(ptr noundef %32)
  br label %33

33:                                               ; preds = %30, %25
  br label %3, !llvm.loop !12

34:                                               ; preds = %12, %3
  store ptr null, ptr @g_switch_nodes_maps, align 8
  ret void
}