; Function Attrs: nounwind uwtable
define dso_local void @free_switch_nodes_maps(ptr noundef %0) local_unnamed_addr #2 {
  %.not8 = icmp eq ptr %0, null
  br i1 %.not8, label %._crit_edge, label %.lr.ph.preheader

.lr.ph.preheader:                                 ; preds = %1
  %2 = getelementptr inbounds nuw i8, ptr %0, i64 24
  %3 = load ptr, ptr %2, align 8
  %.not711 = icmp eq ptr %3, null
  br i1 %.not711, label %._crit_edge, label %.lr.ph

.lr.ph:                                           ; preds = %.lr.ph.preheader, %.lr.ph
  %4 = phi ptr [ %6, %.lr.ph ], [ %2, %.lr.ph.preheader ]
  %.0912 = phi ptr [ %5, %.lr.ph ], [ %0, %.lr.ph.preheader ]
  %5 = getelementptr inbounds nuw i8, ptr %.0912, i64 16
  tail call void @slurm_bit_free(ptr noundef nonnull %4) #16
  store ptr null, ptr %4, align 8
  %6 = getelementptr inbounds nuw i8, ptr %.0912, i64 40
  %7 = load ptr, ptr %6, align 8
  %.not7 = icmp eq ptr %7, null
  br i1 %.not7, label %._crit_edge, label %.lr.ph

._crit_edge:                                      ; preds = %.lr.ph, %.lr.ph.preheader, %1
  store ptr null, ptr @g_switch_nodes_maps, align 8
  ret void
}